; Function Attrs: mustprogress ssp uwtable
define internal fastcc void @"_ZNO8pybind116detail15argument_loaderIJRKN6open3d4core6TensorERKNS_4listEEE4callIS4_NS0_9void_typeERZNS3_L14pybind_getitemERNS_6class_IS4_JEEEE3$_5EENSt9enable_ifIXntsr3std7is_voidIT_EE5valueESJ_E4typeEOT1_"(ptr dead_on_unwind noalias nonnull writable align 8 %0, ptr noundef nonnull align 8 dereferenceable(40) %1) unnamed_addr #5 align 2 personality ptr @__gxx_personality_v0 !type !2059 {
  %3 = alloca %"class.open3d::core::TensorKey", align 8
  %4 = getelementptr inbounds nuw i8, ptr %1, i64 24
  %5 = load ptr, ptr %4, align 8, !tbaa !1170, !noalias !2061
  %.not.i.i.i = icmp eq ptr %5, null
  br i1 %.not.i.i.i, label %6, label %_ZN8pybind116detail7cast_opIRKN6open3d4core6TensorEEENS0_11type_casterINS0_14intrinsic_typeIT_E4typeEvE12cast_op_typeINSt20add_rvalue_referenceIS9_E4typeEEEOSC_.exit.i

6:                                                ; preds = %2
  %7 = tail call ptr @__cxa_allocate_exception(i64 16) #33, !noalias !2061
  invoke void @_ZN8pybind1120reference_cast_errorC2Ev(ptr noundef nonnull align 8 dereferenceable(16) %7)
          to label %8 unwind label %9, !noalias !2061

8:                                                ; preds = %6
  tail call void @__cxa_throw(ptr nonnull %7, ptr nonnull @_ZTIN8pybind1120reference_cast_errorE, ptr nonnull @_ZNSt13runtime_errorD2Ev) #35, !noalias !2061
  unreachable

common.resume.i:                                  ; preds = %35, %9
  %common.resume.op.i = phi { ptr, i32 } [ %10, %9 ], [ %36, %35 ]
  resume { ptr, i32 } %common.resume.op.i

9:                                                ; preds = %6
  %10 = landingpad { ptr, i32 }
          cleanup
  tail call void @__cxa_free_exception(ptr nonnull %7) #33, !noalias !2061
  br label %common.resume.i

_ZN8pybind116detail7cast_opIRKN6open3d4core6TensorEEENS0_11type_casterINS0_14intrinsic_typeIT_E4typeEvE12cast_op_typeINSt20add_rvalue_referenceIS9_E4typeEEEOSC_.exit.i: ; preds = %2
  call void @llvm.lifetime.start.p0(i64 16, ptr nonnull %3) #33, !noalias !2064
  call fastcc void @_ZN6open3d4coreL11ToTensorKeyERKN8pybind114listE(ptr dead_on_unwind noalias writable align 8 %3, ptr noundef nonnull align 8 dereferenceable(40) %1), !noalias !2064
  invoke void @_ZNK6open3d4core6Tensor7GetItemERKNS0_9TensorKeyE(ptr dead_on_unwind nonnull writable sret(%"class.open3d::core::Tensor") align 8 %0, ptr noundef nonnull align 8 dereferenceable(160) %5, ptr noundef nonnull align 8 dereferenceable(16) %3)
          to label %11 unwind label %35

11:                                               ; preds = %_ZN8pybind116detail7cast_opIRKN6open3d4core6TensorEEENS0_11type_casterINS0_14intrinsic_typeIT_E4typeEvE12cast_op_typeINSt20add_rvalue_referenceIS9_E4typeEEEOSC_.exit.i
  %12 = getelementptr inbounds nuw i8, ptr %3, i64 8
  %13 = load ptr, ptr %12, align 8, !tbaa !294, !noalias !2064
  %.not.i.i.i.i.i = icmp eq ptr %13, null
  br i1 %.not.i.i.i.i.i, label %"_ZNO8pybind116detail15argument_loaderIJRKN6open3d4core6TensorERKNS_4listEEE9call_implIS4_RZNS3_L14pybind_getitemERNS_6class_IS4_JEEEE3$_5JLm0ELm1EENS0_9void_typeEEET_OT0_St16integer_sequenceImJXspT1_EEEOT2_.exit", label %14

14:                                               ; preds = %11
  %15 = getelementptr inbounds nuw i8, ptr %13, i64 8
  %16 = load atomic i64, ptr %15 acquire, align 8
  %17 = icmp eq i64 %16, 4294967297
  %18 = trunc i64 %16 to i32
  br i1 %17, label %19, label %27

19:                                               ; preds = %14
  store i32 0, ptr %15, align 8, !tbaa !295
  %20 = getelementptr inbounds nuw i8, ptr %13, i64 12
  store i32 0, ptr %20, align 4, !tbaa !297
  %21 = load ptr, ptr %13, align 8, !tbaa !292
  %22 = getelementptr inbounds nuw i8, ptr %21, i64 16
  %23 = load ptr, ptr %22, align 8
  call void %23(ptr noundef nonnull align 8 dereferenceable(16) %13) #33
  %24 = load ptr, ptr %13, align 8, !tbaa !292
  %25 = getelementptr inbounds nuw i8, ptr %24, i64 24
  %26 = load ptr, ptr %25, align 8
  call void %26(ptr noundef nonnull align 8 dereferenceable(16) %13) #33
  br label %"_ZNO8pybind116detail15argument_loaderIJRKN6open3d4core6TensorERKNS_4listEEE9call_implIS4_RZNS3_L14pybind_getitemERNS_6class_IS4_JEEEE3$_5JLm0ELm1EENS0_9void_typeEEET_OT0_St16integer_sequenceImJXspT1_EEEOT2_.exit"

27:                                               ; preds = %14
  %28 = load i8, ptr @__libc_single_threaded, align 1, !tbaa !136, !noalias !2064
  %.not.i.i.i.i.i.i = icmp eq i8 %28, 0
  br i1 %.not.i.i.i.i.i.i, label %31, label %29

29:                                               ; preds = %27
  %30 = add nsw i32 %18, -1
  store i32 %30, ptr %15, align 4, !tbaa !298
  br label %_ZN9__gnu_cxx27__exchange_and_add_dispatchEPii.exit.i.i.i.i.i.i

31:                                               ; preds = %27
  %32 = atomicrmw volatile add ptr %15, i32 -1 acq_rel, align 4
  br label %_ZN9__gnu_cxx27__exchange_and_add_dispatchEPii.exit.i.i.i.i.i.i

_ZN9__gnu_cxx27__exchange_and_add_dispatchEPii.exit.i.i.i.i.i.i: ; preds = %31, %29
  %.0.i.i.i.i.i.i.i = phi i32 [ %18, %29 ], [ %32, %31 ]
  %33 = icmp eq i32 %.0.i.i.i.i.i.i.i, 1
  br i1 %33, label %34, label %"_ZNO8pybind116detail15argument_loaderIJRKN6open3d4core6TensorERKNS_4listEEE9call_implIS4_RZNS3_L14pybind_getitemERNS_6class_IS4_JEEEE3$_5JLm0ELm1EENS0_9void_typeEEET_OT0_St16integer_sequenceImJXspT1_EEEOT2_.exit", !prof !299

34:                                               ; preds = %_ZN9__gnu_cxx27__exchange_and_add_dispatchEPii.exit.i.i.i.i.i.i
  call void @_ZNSt16_Sp_counted_baseILN9__gnu_cxx12_Lock_policyE2EE24_M_release_last_use_coldEv(ptr noundef nonnull align 8 dereferenceable(16) %13) #33
  br label %"_ZNO8pybind116detail15argument_loaderIJRKN6open3d4core6TensorERKNS_4listEEE9call_implIS4_RZNS3_L14pybind_getitemERNS_6class_IS4_JEEEE3$_5JLm0ELm1EENS0_9void_typeEEET_OT0_St16integer_sequenceImJXspT1_EEEOT2_.exit"

35:                                               ; preds = %_ZN8pybind116detail7cast_opIRKN6open3d4core6TensorEEENS0_11type_casterINS0_14intrinsic_typeIT_E4typeEvE12cast_op_typeINSt20add_rvalue_referenceIS9_E4typeEEEOSC_.exit.i
  %36 = landingpad { ptr, i32 }
          cleanup
  call void @_ZN6open3d4core9TensorKeyD2Ev(ptr noundef nonnull align 8 dereferenceable(16) %3) #33
  call void @llvm.lifetime.end.p0(i64 16, ptr nonnull %3) #33, !noalias !2064
  br label %common.resume.i

"_ZNO8pybind116detail15argument_loaderIJRKN6open3d4core6TensorERKNS_4listEEE9call_implIS4_RZNS3_L14pybind_getitemERNS_6class_IS4_JEEEE3$_5JLm0ELm1EENS0_9void_typeEEET_OT0_St16integer_sequenceImJXspT1_EEEOT2_.exit": ; preds = %11, %19, %_ZN9__gnu_cxx27__exchange_and_add_dispatchEPii.exit.i.i.i.i.i.i, %34
  call void @llvm.lifetime.end.p0(i64 16, ptr nonnull %3) #33, !noalias !2064
  ret void
}